	.file	"basicInline.cpp"
	.text
.Ltext0:
	.globl	_Z6abcAddii
	.type	_Z6abcAddii, @function
_Z6abcAddii:
.LFB0:
	.file 1 "basicInline.cpp"
	.loc 1 21 0
	.cfi_startproc
	pushq	%rbp
	.cfi_def_cfa_offset 16
	.cfi_offset 6, -16
	movq	%rsp, %rbp
	.cfi_def_cfa_register 6
	pushq	%rbx
	.cfi_offset 3, -24
	movl	%edi, -28(%rbp)
	movl	%esi, -32(%rbp)
	.loc 1 33 0
	movl	-32(%rbp), %eax
	movl	-28(%rbp), %edx
	movl	%eax, %ebx
	movl	%edx, %ecx
#APP
# 33 "basicInline.cpp" 1
	movl %ebx, %eax;addl %ecx, %eax;movl $12, %edi
# 0 "" 2
#NO_APP
	movl	%eax, -12(%rbp)
	.loc 1 36 0
	movl	-12(%rbp), %eax
	.loc 1 37 0
	popq	%rbx
	popq	%rbp
	.cfi_def_cfa 7, 8
	ret
	.cfi_endproc
.LFE0:
	.size	_Z6abcAddii, .-_Z6abcAddii
	.globl	_Z5abAddii
	.type	_Z5abAddii, @function
_Z5abAddii:
.LFB1:
	.loc 1 39 0
	.cfi_startproc
	pushq	%rbp
	.cfi_def_cfa_offset 16
	.cfi_offset 6, -16
	movq	%rsp, %rbp
	.cfi_def_cfa_register 6
	pushq	%rbx
	.cfi_offset 3, -24
	movl	%edi, -12(%rbp)
	movl	%esi, -16(%rbp)
	.loc 1 49 0
	movl	-16(%rbp), %edx
	movl	-12(%rbp), %eax
	movl	%edx, %ebx
#APP
# 49 "basicInline.cpp" 1
	addl %ebx, %eax
# 0 "" 2
#NO_APP
	movl	%eax, -12(%rbp)
	.loc 1 51 0
	movl	-12(%rbp), %eax
	.loc 1 52 0
	popq	%rbx
	popq	%rbp
	.cfi_def_cfa 7, 8
	ret
	.cfi_endproc
.LFE1:
	.size	_Z5abAddii, .-_Z5abAddii
	.globl	_Z9anyRegAddii
	.type	_Z9anyRegAddii, @function
_Z9anyRegAddii:
.LFB2:
	.loc 1 54 0
	.cfi_startproc
	pushq	%rbp
	.cfi_def_cfa_offset 16
	.cfi_offset 6, -16
	movq	%rsp, %rbp
	.cfi_def_cfa_register 6
	movl	%edi, -4(%rbp)
	movl	%esi, -8(%rbp)
	.loc 1 62 0
	movl	-8(%rbp), %edx
	movl	-4(%rbp), %eax
#APP
# 62 "basicInline.cpp" 1
	addl %edx, %eax
# 0 "" 2
#NO_APP
	movl	%eax, -4(%rbp)
	.loc 1 63 0
	movl	-4(%rbp), %eax
	.loc 1 64 0
	popq	%rbp
	.cfi_def_cfa 7, 8
	ret
	.cfi_endproc
.LFE2:
	.size	_Z9anyRegAddii, .-_Z9anyRegAddii
	.globl	_Z12altAnyRegAddii
	.type	_Z12altAnyRegAddii, @function
_Z12altAnyRegAddii:
.LFB3:
	.loc 1 66 0
	.cfi_startproc
	pushq	%rbp
	.cfi_def_cfa_offset 16
	.cfi_offset 6, -16
	movq	%rsp, %rbp
	.cfi_def_cfa_register 6
	movl	%edi, -4(%rbp)
	movl	%esi, -8(%rbp)
	.loc 1 76 0
	movl	-8(%rbp), %edx
	movl	-4(%rbp), %eax
#APP
# 76 "basicInline.cpp" 1
	addl %edx, %eax
# 0 "" 2
#NO_APP
	movl	%eax, -4(%rbp)
	.loc 1 77 0
	movl	-4(%rbp), %eax
	.loc 1 78 0
	popq	%rbp
	.cfi_def_cfa 7, 8
	ret
	.cfi_endproc
.LFE3:
	.size	_Z12altAnyRegAddii, .-_Z12altAnyRegAddii
	.globl	_Z6memAddii
	.type	_Z6memAddii, @function
_Z6memAddii:
.LFB4:
	.loc 1 80 0
	.cfi_startproc
	pushq	%rbp
	.cfi_def_cfa_offset 16
	.cfi_offset 6, -16
	movq	%rsp, %rbp
	.cfi_def_cfa_register 6
	movl	%edi, -4(%rbp)
	movl	%esi, -8(%rbp)
	.loc 1 89 0
	movl	-4(%rbp), %eax
#APP
# 89 "basicInline.cpp" 1
	addl -8(%rbp), %eax
# 0 "" 2
#NO_APP
	movl	%eax, -4(%rbp)
	.loc 1 90 0
	movl	-4(%rbp), %eax
	.loc 1 92 0
	popq	%rbp
	.cfi_def_cfa 7, 8
	ret
	.cfi_endproc
.LFE4:
	.size	_Z6memAddii, .-_Z6memAddii
	.globl	_Z11anyWhereAddii
	.type	_Z11anyWhereAddii, @function
_Z11anyWhereAddii:
.LFB5:
	.loc 1 94 0
	.cfi_startproc
	pushq	%rbp
	.cfi_def_cfa_offset 16
	.cfi_offset 6, -16
	movq	%rsp, %rbp
	.cfi_def_cfa_register 6
	movl	%edi, -4(%rbp)
	movl	%esi, -8(%rbp)
	.loc 1 102 0
	movl	-4(%rbp), %eax
#APP
# 102 "basicInline.cpp" 1
	addl -8(%rbp), %eax
# 0 "" 2
#NO_APP
	movl	%eax, -4(%rbp)
	.loc 1 103 0
	movl	-4(%rbp), %eax
	.loc 1 105 0
	popq	%rbp
	.cfi_def_cfa 7, 8
	ret
	.cfi_endproc
.LFE5:
	.size	_Z11anyWhereAddii, .-_Z11anyWhereAddii
	.globl	_Z10clobberAddii
	.type	_Z10clobberAddii, @function
_Z10clobberAddii:
.LFB6:
	.loc 1 107 0
	.cfi_startproc
	pushq	%rbp
	.cfi_def_cfa_offset 16
	.cfi_offset 6, -16
	movq	%rsp, %rbp
	.cfi_def_cfa_register 6
	movl	%edi, -20(%rbp)
	movl	%esi, -24(%rbp)
	.loc 1 118 0
	movl	-24(%rbp), %eax
	movl	-20(%rbp), %edx
#APP
# 118 "basicInline.cpp" 1
	movl $0, %eax;movl %eax, %eax;addl %edx, %eax
# 0 "" 2
#NO_APP
	movl	%eax, -4(%rbp)
	.loc 1 119 0
	movl	-4(%rbp), %eax
	.loc 1 121 0
	popq	%rbp
	.cfi_def_cfa 7, 8
	ret
	.cfi_endproc
.LFE6:
	.size	_Z10clobberAddii, .-_Z10clobberAddii
	.section	.rodata
.LC0:
	.string	"%d\n"
	.text
	.globl	main
	.type	main, @function
main:
.LFB7:
	.loc 1 125 0
	.cfi_startproc
	pushq	%rbp
	.cfi_def_cfa_offset 16
	.cfi_offset 6, -16
	movq	%rsp, %rbp
	.cfi_def_cfa_register 6
	subq	$16, %rsp
	.loc 1 126 0
	movl	$10, -8(%rbp)
	.loc 1 127 0
	movl	$100, -4(%rbp)
	.loc 1 129 0
	movl	-4(%rbp), %edx
	movl	-8(%rbp), %eax
	movl	%edx, %esi
	movl	%eax, %edi
	call	_Z6abcAddii
	movl	%eax, %esi
	movl	$.LC0, %edi
	movl	$0, %eax
	call	printf
	.loc 1 130 0
	movl	-4(%rbp), %edx
	movl	-8(%rbp), %eax
	movl	%edx, %esi
	movl	%eax, %edi
	call	_Z5abAddii
	movl	%eax, %esi
	movl	$.LC0, %edi
	movl	$0, %eax
	call	printf
	.loc 1 131 0
	movl	-4(%rbp), %edx
	movl	-8(%rbp), %eax
	movl	%edx, %esi
	movl	%eax, %edi
	call	_Z9anyRegAddii
	movl	%eax, %esi
	movl	$.LC0, %edi
	movl	$0, %eax
	call	printf
	.loc 1 132 0
	movl	-4(%rbp), %edx
	movl	-8(%rbp), %eax
	movl	%edx, %esi
	movl	%eax, %edi
	call	_Z12altAnyRegAddii
	movl	%eax, %esi
	movl	$.LC0, %edi
	movl	$0, %eax
	call	printf
	.loc 1 133 0
	movl	-4(%rbp), %edx
	movl	-8(%rbp), %eax
	movl	%edx, %esi
	movl	%eax, %edi
	call	_Z6memAddii
	movl	%eax, %esi
	movl	$.LC0, %edi
	movl	$0, %eax
	call	printf
	.loc 1 134 0
	movl	-4(%rbp), %edx
	movl	-8(%rbp), %eax
	movl	%edx, %esi
	movl	%eax, %edi
	call	_Z11anyWhereAddii
	movl	%eax, %esi
	movl	$.LC0, %edi
	movl	$0, %eax
	call	printf
	.loc 1 135 0
	movl	-4(%rbp), %edx
	movl	-8(%rbp), %eax
	movl	%edx, %esi
	movl	%eax, %edi
	call	_Z10clobberAddii
	movl	%eax, %esi
	movl	$.LC0, %edi
	movl	$0, %eax
	call	printf
	.loc 1 137 0
	movl	$0, %eax
	.loc 1 138 0
	leave
	.cfi_def_cfa 7, 8
	ret
	.cfi_endproc
.LFE7:
	.size	main, .-main
.Letext0:
	.section	.note.GNU-stack,"",@progbits
